target datalayout = "e-m:e-p270:32:32-p271:32:32-p272:64:64-i64:64-i128:128-f80:128-n8:16:32:64-S128"
target triple = "x86_64-pc-linux-gnu"

%"struct.boost::unit_test::log::end" = type { i8 }
%"class.boost::unit_test::ut_detail::entry_value_collector" = type { i8 }

@_ZN5boost9unit_test12_GLOBAL__N_113unit_test_logE = internal global ptr null, align 8

; Function Attrs: mustprogress nounwind uwtable
define void @_ZN5boost9unit_test9ut_detail21entry_value_collectorD2Ev(ptr noundef nonnull align 1 dereferenceable(1) %0) unnamed_addr #4 align 2 personality ptr @__gxx_personality_v0 {
  %2 = alloca ptr, align 8
  %3 = alloca %"struct.boost::unit_test::log::end", align 1
  store ptr %0, ptr %2, align 8, !tbaa !3
  %4 = load ptr, ptr %2, align 8
  %5 = getelementptr inbounds nuw %"class.boost::unit_test::ut_detail::entry_value_collector", ptr %4, i32 0, i32 0
  %6 = load i8, ptr %5, align 1, !tbaa !32, !range !35, !noundef !36
  %7 = trunc i8 %6 to i1
  br i1 %7, label %8, label %12

8:                                                ; preds = %1
  %9 = load ptr, ptr @_ZN5boost9unit_test12_GLOBAL__N_113unit_test_logE, align 8, !tbaa !3
  call void @llvm.lifetime.start.p0(i64 1, ptr %3) #3
  %10 = invoke noundef nonnull align 8 dereferenceable(8) ptr @_ZN5boost9unit_test15unit_test_log_tlsERKNS0_3log3endE(ptr noundef nonnull align 8 dereferenceable(8) %9, ptr noundef nonnull align 1 dereferenceable(1) %3)
          to label %11 unwind label %13

11:                                               ; preds = %8
  call void @llvm.lifetime.end.p0(i64 1, ptr %3) #3
  br label %12

12:                                               ; preds = %11, %1
  ret void

13:                                               ; preds = %8
  %14 = landingpad { ptr, i32 }
          catch ptr null
  %15 = extractvalue { ptr, i32 } %14, 0
  call void @__clang_call_terminate(ptr %15) #19
  unreachable
}