; Function Attrs: mustprogress nounwind uwtable
define void @_ZN5boost9unit_test9ut_detail21entry_value_collectorD2Ev(ptr nocapture noundef nonnull readonly align 1 dereferenceable(1) %0) unnamed_addr #5 align 2 personality ptr @__gxx_personality_v0 {
  %2 = load i8, ptr %0, align 1, !tbaa !44, !range !11, !noundef !12
  %3 = trunc nuw i8 %2 to i1
  br i1 %3, label %4, label %7

4:                                                ; preds = %1
  %5 = load ptr, ptr @_ZN5boost9unit_test12_GLOBAL__N_113unit_test_logE, align 8, !tbaa !4
  %6 = invoke noundef nonnull align 8 dereferenceable(8) ptr @_ZN5boost9unit_test15unit_test_log_tlsERKNS0_3log3endE(ptr noundef nonnull align 8 dereferenceable(8) %5, ptr nonnull align 1 poison)
          to label %7 unwind label %8

7:                                                ; preds = %4, %1
  ret void

8:                                                ; preds = %4
  %9 = landingpad { ptr, i32 }
          catch ptr null
  %10 = extractvalue { ptr, i32 } %9, 0
  tail call void @__clang_call_terminate(ptr %10) #28
  unreachable
}